target datalayout = "e-m:e-p270:32:32-p271:32:32-p272:64:64-i64:64-i128:128-f80:128-n8:16:32:64-S128"
target triple = "x86_64-pc-linux-gnu"

; Function Attrs: mustprogress uwtable
define internal noundef zeroext i1 @_ZL15hb_bsearch_implIKmmJEEbPjRKT0_PT_mmPFiPKvS8_DpT1_ESA_(ptr noundef %0, ptr noundef nonnull align 8 dereferenceable(8) %1, ptr noundef %2, i64 noundef %3, i64 noundef %4, ptr noundef %5) #0 {
  %7 = alloca i1, align 1
  %8 = alloca ptr, align 8
  %9 = alloca ptr, align 8
  %10 = alloca ptr, align 8
  %11 = alloca i64, align 8
  %12 = alloca i64, align 8
  %13 = alloca ptr, align 8
  %14 = alloca i32, align 4
  %15 = alloca i32, align 4
  %16 = alloca i32, align 4
  %17 = alloca ptr, align 8
  %18 = alloca i32, align 4
  store ptr %0, ptr %8, align 8
  store ptr %1, ptr %9, align 8
  store ptr %2, ptr %10, align 8
  store i64 %3, ptr %11, align 8
  store i64 %4, ptr %12, align 8
  store ptr %5, ptr %13, align 8
  store i32 0, ptr %14, align 4
  %19 = load i64, ptr %11, align 8
  %20 = trunc i64 %19 to i32
  %21 = sub nsw i32 %20, 1
  store i32 %21, ptr %15, align 4
  br label %22

22:                                               ; preds = %56, %6
  %23 = load i32, ptr %14, align 4
  %24 = load i32, ptr %15, align 4
  %25 = icmp sle i32 %23, %24
  br i1 %25, label %26, label %57

26:                                               ; preds = %22
  %27 = load i32, ptr %14, align 4
  %28 = load i32, ptr %15, align 4
  %29 = add i32 %27, %28
  %30 = udiv i32 %29, 2
  store i32 %30, ptr %16, align 4
  %31 = load ptr, ptr %10, align 8
  %32 = load i32, ptr %16, align 4
  %33 = sext i32 %32 to i64
  %34 = load i64, ptr %12, align 8
  %35 = mul i64 %33, %34
  %36 = getelementptr inbounds i8, ptr %31, i64 %35
  store ptr %36, ptr %17, align 8
  %37 = load ptr, ptr %13, align 8
  %38 = load ptr, ptr %9, align 8
  %39 = load ptr, ptr %17, align 8
  %40 = call noundef i32 %37(ptr noundef %38, ptr noundef %39)
  store i32 %40, ptr %18, align 4
  %41 = load i32, ptr %18, align 4
  %42 = icmp slt i32 %41, 0
  br i1 %42, label %43, label %46

43:                                               ; preds = %26
  %44 = load i32, ptr %16, align 4
  %45 = sub nsw i32 %44, 1
  store i32 %45, ptr %15, align 4
  br label %56

46:                                               ; preds = %26
  %47 = load i32, ptr %18, align 4
  %48 = icmp sgt i32 %47, 0
  br i1 %48, label %49, label %52

49:                                               ; preds = %46
  %50 = load i32, ptr %16, align 4
  %51 = add nsw i32 %50, 1
  store i32 %51, ptr %14, align 4
  br label %55

52:                                               ; preds = %46
  %53 = load i32, ptr %16, align 4
  %54 = load ptr, ptr %8, align 8
  store i32 %53, ptr %54, align 4
  store i1 true, ptr %7, align 1
  br label %60

55:                                               ; preds = %49
  br label %56

56:                                               ; preds = %55, %43
  br label %22, !llvm.loop !8

57:                                               ; preds = %22
  %58 = load i32, ptr %14, align 4
  %59 = load ptr, ptr %8, align 8
  store i32 %58, ptr %59, align 4
  store i1 false, ptr %7, align 1
  br label %60

60:                                               ; preds = %57, %52
  %61 = load i1, ptr %7, align 1
  ret i1 %61
}

; Function Attrs: mustprogress uwtable
define internal noundef zeroext i1 @_ZL15hb_bsearch_implIKjjJEEbPjRKT0_PT_mmPFiPKvS8_DpT1_ESA_(ptr noundef %0, ptr noundef nonnull align 4 dereferenceable(4) %1, ptr noundef %2, i64 noundef %3, i64 noundef %4, ptr noundef %5) #0 {
  %7 = alloca i1, align 1
  %8 = alloca ptr, align 8
  %9 = alloca ptr, align 8
  %10 = alloca ptr, align 8
  %11 = alloca i64, align 8
  %12 = alloca i64, align 8
  %13 = alloca ptr, align 8
  %14 = alloca i32, align 4
  %15 = alloca i32, align 4
  %16 = alloca i32, align 4
  %17 = alloca ptr, align 8
  %18 = alloca i32, align 4
  store ptr %0, ptr %8, align 8
  store ptr %1, ptr %9, align 8
  store ptr %2, ptr %10, align 8
  store i64 %3, ptr %11, align 8
  store i64 %4, ptr %12, align 8
  store ptr %5, ptr %13, align 8
  store i32 0, ptr %14, align 4
  %19 = load i64, ptr %11, align 8
  %20 = trunc i64 %19 to i32
  %21 = sub nsw i32 %20, 1
  store i32 %21, ptr %15, align 4
  br label %22

22:                                               ; preds = %56, %6
  %23 = load i32, ptr %14, align 4
  %24 = load i32, ptr %15, align 4
  %25 = icmp sle i32 %23, %24
  br i1 %25, label %26, label %57

26:                                               ; preds = %22
  %27 = load i32, ptr %14, align 4
  %28 = load i32, ptr %15, align 4
  %29 = add i32 %27, %28
  %30 = udiv i32 %29, 2
  store i32 %30, ptr %16, align 4
  %31 = load ptr, ptr %10, align 8
  %32 = load i32, ptr %16, align 4
  %33 = sext i32 %32 to i64
  %34 = load i64, ptr %12, align 8
  %35 = mul i64 %33, %34
  %36 = getelementptr inbounds i8, ptr %31, i64 %35
  store ptr %36, ptr %17, align 8
  %37 = load ptr, ptr %13, align 8
  %38 = load ptr, ptr %9, align 8
  %39 = load ptr, ptr %17, align 8
  %40 = call noundef i32 %37(ptr noundef %38, ptr noundef %39)
  store i32 %40, ptr %18, align 4
  %41 = load i32, ptr %18, align 4
  %42 = icmp slt i32 %41, 0
  br i1 %42, label %43, label %46

43:                                               ; preds = %26
  %44 = load i32, ptr %16, align 4
  %45 = sub nsw i32 %44, 1
  store i32 %45, ptr %15, align 4
  br label %56

46:                                               ; preds = %26
  %47 = load i32, ptr %18, align 4
  %48 = icmp sgt i32 %47, 0
  br i1 %48, label %49, label %52

49:                                               ; preds = %46
  %50 = load i32, ptr %16, align 4
  %51 = add nsw i32 %50, 1
  store i32 %51, ptr %14, align 4
  br label %55

52:                                               ; preds = %46
  %53 = load i32, ptr %16, align 4
  %54 = load ptr, ptr %8, align 8
  store i32 %53, ptr %54, align 4
  store i1 true, ptr %7, align 1
  br label %60

55:                                               ; preds = %49
  br label %56

56:                                               ; preds = %55, %43
  br label %22, !llvm.loop !6

57:                                               ; preds = %22
  %58 = load i32, ptr %14, align 4
  %59 = load ptr, ptr %8, align 8
  store i32 %58, ptr %59, align 4
  store i1 false, ptr %7, align 1
  br label %60

60:                                               ; preds = %57, %52
  %61 = load i1, ptr %7, align 1
  ret i1 %61
}

; Function Attrs: mustprogress uwtable
define internal noundef ptr @_ZL10hb_bsearchIKmmEPT_RKT0_S2_mmPFiPKvS7_E(ptr noundef nonnull align 8 dereferenceable(8) %0, ptr noundef %1, i64 noundef %2, i64 noundef %3, ptr noundef %4) #0 {
  %6 = alloca ptr, align 8
  %7 = alloca ptr, align 8
  %8 = alloca i64, align 8
  %9 = alloca i64, align 8
  %10 = alloca ptr, align 8
  %11 = alloca i32, align 4
  store ptr %0, ptr %6, align 8
  store ptr %1, ptr %7, align 8
  store i64 %2, ptr %8, align 8
  store i64 %3, ptr %9, align 8
  store ptr %4, ptr %10, align 8
  %12 = load ptr, ptr %6, align 8
  %13 = load ptr, ptr %7, align 8
  %14 = load i64, ptr %8, align 8
  %15 = load i64, ptr %9, align 8
  %16 = load ptr, ptr %10, align 8
  %17 = call noundef zeroext i1 @_ZL15hb_bsearch_implIKmmJEEbPjRKT0_PT_mmPFiPKvS8_DpT1_ESA_(ptr noundef %11, ptr noundef nonnull align 8 dereferenceable(8) %12, ptr noundef %13, i64 noundef %14, i64 noundef %15, ptr noundef %16)
  br i1 %17, label %18, label %25

18:                                               ; preds = %5
  %19 = load ptr, ptr %7, align 8
  %20 = load i32, ptr %11, align 4
  %21 = zext i32 %20 to i64
  %22 = load i64, ptr %9, align 8
  %23 = mul i64 %21, %22
  %24 = getelementptr inbounds i8, ptr %19, i64 %23
  br label %26

25:                                               ; preds = %5
  br label %26

26:                                               ; preds = %25, %18
  %27 = phi ptr [ %24, %18 ], [ null, %25 ]
  ret ptr %27
}

; Function Attrs: mustprogress nounwind uwtable
define internal noundef i32 @_ZL12ARRAY_LENGTHImLj388EEjRAT0__KT_(ptr noundef nonnull align 8 dereferenceable(3104) %0) #1 {
  %2 = alloca ptr, align 8
  store ptr %0, ptr %2, align 8
  ret i32 388
}

; Function Attrs: mustprogress uwtable
define internal noundef ptr @_ZL10hb_bsearchIKjjEPT_RKT0_S2_mmPFiPKvS7_E(ptr noundef nonnull align 4 dereferenceable(4) %0, ptr noundef %1, i64 noundef %2, i64 noundef %3, ptr noundef %4) #0 {
  %6 = alloca ptr, align 8
  %7 = alloca ptr, align 8
  %8 = alloca i64, align 8
  %9 = alloca i64, align 8
  %10 = alloca ptr, align 8
  %11 = alloca i32, align 4
  store ptr %0, ptr %6, align 8
  store ptr %1, ptr %7, align 8
  store i64 %2, ptr %8, align 8
  store i64 %3, ptr %9, align 8
  store ptr %4, ptr %10, align 8
  %12 = load ptr, ptr %6, align 8
  %13 = load ptr, ptr %7, align 8
  %14 = load i64, ptr %8, align 8
  %15 = load i64, ptr %9, align 8
  %16 = load ptr, ptr %10, align 8
  %17 = call noundef zeroext i1 @_ZL15hb_bsearch_implIKjjJEEbPjRKT0_PT_mmPFiPKvS8_DpT1_ESA_(ptr noundef %11, ptr noundef nonnull align 4 dereferenceable(4) %12, ptr noundef %13, i64 noundef %14, i64 noundef %15, ptr noundef %16)
  br i1 %17, label %18, label %25

18:                                               ; preds = %5
  %19 = load ptr, ptr %7, align 8
  %20 = load i32, ptr %11, align 4
  %21 = zext i32 %20 to i64
  %22 = load i64, ptr %9, align 8
  %23 = mul i64 %21, %22
  %24 = getelementptr inbounds i8, ptr %19, i64 %23
  br label %26

25:                                               ; preds = %5
  br label %26

26:                                               ; preds = %25, %18
  %27 = phi ptr [ %24, %18 ], [ null, %25 ]
  ret ptr %27
}

; Function Attrs: mustprogress nounwind uwtable
define internal noundef i32 @_ZL12ARRAY_LENGTHIjLj638EEjRAT0__KT_(ptr noundef nonnull align 4 dereferenceable(2552) %0) #1 {
  %2 = alloca ptr, align 8
  store ptr %0, ptr %2, align 8
  ret i32 638
}

; Function Attrs: mustprogress nounwind uwtable
define internal noundef zeroext i1 @_ZL22_hb_ucd_compose_hanguljjPj(i32 noundef %0, i32 noundef %1, ptr noundef %2) #1 {
  %4 = alloca i1, align 1
  %5 = alloca i32, align 4
  %6 = alloca i32, align 4
  %7 = alloca ptr, align 8
  %8 = alloca i32, align 4
  %9 = alloca i32, align 4
  store i32 %0, ptr %5, align 4
  store i32 %1, ptr %6, align 4
  store ptr %2, ptr %7, align 8
  %10 = load i32, ptr %5, align 4
  %11 = icmp uge i32 %10, 44032
  br i1 %11, label %12, label %32

12:                                               ; preds = %3
  %13 = load i32, ptr %5, align 4
  %14 = icmp ult i32 %13, 55204
  br i1 %14, label %15, label %32

15:                                               ; preds = %12
  %16 = load i32, ptr %6, align 4
  %17 = icmp ugt i32 %16, 4519
  br i1 %17, label %18, label %32

18:                                               ; preds = %15
  %19 = load i32, ptr %6, align 4
  %20 = icmp ult i32 %19, 4547
  br i1 %20, label %21, label %32

21:                                               ; preds = %18
  %22 = load i32, ptr %5, align 4
  %23 = sub i32 %22, 44032
  %24 = urem i32 %23, 28
  %25 = icmp ne i32 %24, 0
  br i1 %25, label %32, label %26

26:                                               ; preds = %21
  %27 = load i32, ptr %5, align 4
  %28 = load i32, ptr %6, align 4
  %29 = sub i32 %28, 4519
  %30 = add i32 %27, %29
  %31 = load ptr, ptr %7, align 8
  store i32 %30, ptr %31, align 4
  store i1 true, ptr %4, align 1
  br label %57

32:                                               ; preds = %21, %18, %15, %12, %3
  %33 = load i32, ptr %5, align 4
  %34 = icmp uge i32 %33, 4352
  br i1 %34, label %35, label %56

35:                                               ; preds = %32
  %36 = load i32, ptr %5, align 4
  %37 = icmp ult i32 %36, 4371
  br i1 %37, label %38, label %56

38:                                               ; preds = %35
  %39 = load i32, ptr %6, align 4
  %40 = icmp uge i32 %39, 4449
  br i1 %40, label %41, label %56

41:                                               ; preds = %38
  %42 = load i32, ptr %6, align 4
  %43 = icmp ult i32 %42, 4470
  br i1 %43, label %44, label %56

44:                                               ; preds = %41
  %45 = load i32, ptr %5, align 4
  %46 = sub i32 %45, 4352
  store i32 %46, ptr %8, align 4
  %47 = load i32, ptr %6, align 4
  %48 = sub i32 %47, 4449
  store i32 %48, ptr %9, align 4
  %49 = load i32, ptr %8, align 4
  %50 = mul i32 %49, 588
  %51 = add i32 44032, %50
  %52 = load i32, ptr %9, align 4
  %53 = mul i32 %52, 28
  %54 = add i32 %51, %53
  %55 = load ptr, ptr %7, align 8
  store i32 %54, ptr %55, align 4
  store i1 true, ptr %4, align 1
  br label %57

56:                                               ; preds = %41, %38, %35, %32
  store i1 false, ptr %4, align 1
  br label %57

57:                                               ; preds = %56, %44, %26
  %58 = load i1, ptr %4, align 1
  ret i1 %58
}

; Function Attrs: mustprogress uwtable
define internal noundef i32 @_ZL14hb_ucd_composeP18hb_unicode_funcs_tjjPjPv(ptr noundef %0, i32 noundef %1, i32 noundef %2, ptr noundef %3, ptr noundef %4) #0 {
  %6 = alloca i32, align 4
  %7 = alloca ptr, align 8
  %8 = alloca i32, align 4
  %9 = alloca i32, align 4
  %10 = alloca ptr, align 8
  %11 = alloca ptr, align 8
  %12 = alloca i32, align 4
  %13 = alloca i32, align 4
  %14 = alloca ptr, align 8
  %15 = alloca i64, align 8
  %16 = alloca ptr, align 8
  store ptr %0, ptr %7, align 8
  store i32 %1, ptr %8, align 4
  store i32 %2, ptr %9, align 4
  store ptr %3, ptr %10, align 8
  store ptr %4, ptr %11, align 8
  %17 = load i32, ptr %8, align 4
  %18 = load i32, ptr %9, align 4
  %19 = load ptr, ptr %10, align 8
  %20 = call noundef zeroext i1 @_ZL22_hb_ucd_compose_hanguljjPj(i32 noundef %17, i32 noundef %18, ptr noundef %19)
  br i1 %20, label %21, label %22

21:                                               ; preds = %5
  store i32 1, ptr %6, align 4
  br label %76

22:                                               ; preds = %5
  store i32 0, ptr %12, align 4
  %23 = load i32, ptr %8, align 4
  %24 = and i32 %23, -2048
  %25 = icmp eq i32 %24, 0
  br i1 %25, label %26, label %49

26:                                               ; preds = %22
  %27 = load i32, ptr %9, align 4
  %28 = and i32 %27, -128
  %29 = icmp eq i32 %28, 768
  br i1 %29, label %30, label %49

30:                                               ; preds = %26
  %31 = load i32, ptr %8, align 4
  %32 = and i32 %31, 2047
  %33 = shl i32 %32, 21
  %34 = load i32, ptr %9, align 4
  %35 = and i32 %34, 127
  %36 = shl i32 %35, 14
  %37 = or i32 %33, %36
  %38 = or i32 %37, 0
  store i32 %38, ptr %13, align 4
  %39 = call noundef i32 @_ZL12ARRAY_LENGTHIjLj638EEjRAT0__KT_(ptr noundef nonnull align 4 dereferenceable(2552) @_ZL19_hb_ucd_dm2_u32_map)
  %40 = zext i32 %39 to i64
  %41 = call noundef ptr @_ZL10hb_bsearchIKjjEPT_RKT0_S2_mmPFiPKvS7_E(ptr noundef nonnull align 4 dereferenceable(4) %13, ptr noundef @_ZL19_hb_ucd_dm2_u32_map, i64 noundef %40, i64 noundef 4, ptr noundef @_ZL17_cmp_pair_11_7_14PKvS0_)
  store ptr %41, ptr %14, align 8
  %42 = load ptr, ptr %14, align 8
  %43 = icmp ne ptr %42, null
  br i1 %43, label %45, label %44

44:                                               ; preds = %30
  store i32 0, ptr %6, align 4
  br label %76

45:                                               ; preds = %30
  %46 = load ptr, ptr %14, align 8
  %47 = load i32, ptr %46, align 4
  %48 = and i32 %47, 16383
  store i32 %48, ptr %12, align 4
  br label %69

49:                                               ; preds = %26, %22
  %50 = load i32, ptr %8, align 4
  %51 = zext i32 %50 to i64
  %52 = shl i64 %51, 42
  %53 = load i32, ptr %9, align 4
  %54 = zext i32 %53 to i64
  %55 = shl i64 %54, 21
  %56 = or i64 %52, %55
  %57 = or i64 %56, 0
  store i64 %57, ptr %15, align 8
  %58 = call noundef i32 @_ZL12ARRAY_LENGTHImLj388EEjRAT0__KT_(ptr noundef nonnull align 8 dereferenceable(3104) @_ZL19_hb_ucd_dm2_u64_map)
  %59 = zext i32 %58 to i64
  %60 = call noundef ptr @_ZL10hb_bsearchIKmmEPT_RKT0_S2_mmPFiPKvS7_E(ptr noundef nonnull align 8 dereferenceable(8) %15, ptr noundef @_ZL19_hb_ucd_dm2_u64_map, i64 noundef %59, i64 noundef 8, ptr noundef @_ZL9_cmp_pairPKvS0_)
  store ptr %60, ptr %16, align 8
  %61 = load ptr, ptr %16, align 8
  %62 = icmp ne ptr %61, null
  br i1 %62, label %64, label %63

63:                                               ; preds = %49
  store i32 0, ptr %6, align 4
  br label %76

64:                                               ; preds = %49
  %65 = load ptr, ptr %16, align 8
  %66 = load i64, ptr %65, align 8
  %67 = trunc i64 %66 to i32
  %68 = and i32 %67, 2097151
  store i32 %68, ptr %12, align 4
  br label %69

69:                                               ; preds = %64, %45
  %70 = load i32, ptr %12, align 4
  %71 = icmp ne i32 %70, 0
  br i1 %71, label %73, label %72

72:                                               ; preds = %69
  store i32 0, ptr %6, align 4
  br label %76

73:                                               ; preds = %69
  %74 = load i32, ptr %12, align 4
  %75 = load ptr, ptr %10, align 8
  store i32 %74, ptr %75, align 4
  store i32 1, ptr %6, align 4
  br label %76

76:                                               ; preds = %73, %72, %63, %44, %21
  %77 = load i32, ptr %6, align 4
  ret i32 %77
}