; Function Attrs: mustprogress nofree norecurse nosync nounwind memory(argmem: write) uwtable
define internal noundef range(i32 0, 2) i32 @_ZL14hb_ucd_composeP18hb_unicode_funcs_tjjPjPv(ptr nocapture readnone %0, i32 noundef %1, i32 noundef %2, ptr nocapture noundef writeonly %3, ptr nocapture readnone %4) #3 {
  %6 = add i32 %1, -44032
  %or.cond.i = icmp ult i32 %6, 11172
  %7 = add i32 %2, -4520
  %8 = icmp ult i32 %7, 27
  %or.cond5.i = and i1 %or.cond.i, %8
  br i1 %or.cond5.i, label %9, label %14

9:                                                ; preds = %5
  %.lhs.trunc.i = trunc nuw i32 %6 to i16
  %10 = urem i16 %.lhs.trunc.i, 28
  %.not.i = icmp eq i16 %10, 0
  br i1 %.not.i, label %11, label %.thread

11:                                               ; preds = %9
  %12 = add nsw i32 %1, -4519
  %13 = add nuw nsw i32 %12, %2
  br label %_ZL10hb_bsearchIKjjEPT_RKT0_S2_mmPFiPKvS7_E.exit.thread.sink.split

14:                                               ; preds = %5
  %15 = add i32 %1, -4352
  %or.cond7.i = icmp ult i32 %15, 19
  %16 = add i32 %2, -4449
  %17 = icmp ult i32 %16, 21
  %or.cond11.i = and i1 %or.cond7.i, %17
  br i1 %or.cond11.i, label %18, label %23

18:                                               ; preds = %14
  %19 = mul nuw nsw i32 %1, 588
  %20 = mul nuw nsw i32 %2, 28
  %21 = add nuw nsw i32 %19, -2639516
  %22 = add nsw i32 %21, %20
  br label %_ZL10hb_bsearchIKjjEPT_RKT0_S2_mmPFiPKvS7_E.exit.thread.sink.split

23:                                               ; preds = %14
  %24 = icmp ult i32 %1, 2048
  %25 = and i32 %2, -128
  %26 = icmp eq i32 %25, 768
  %or.cond = and i1 %24, %26
  br i1 %or.cond, label %27, label %.thread

27:                                               ; preds = %23
  %28 = shl nuw i32 %1, 21
  %29 = shl nuw nsw i32 %2, 14
  %30 = and i32 %29, 2080768
  %31 = or disjoint i32 %30, %28
  br label %32

32:                                               ; preds = %46, %27
  %.0193.i.i = phi i32 [ 0, %27 ], [ %.1.i.i, %46 ]
  %.0202.i.i = phi i32 [ 637, %27 ], [ %.121.i.i, %46 ]
  %33 = add i32 %.0202.i.i, %.0193.i.i
  %34 = lshr i32 %33, 1
  %35 = zext nneg i32 %34 to i64
  %36 = shl nuw nsw i64 %35, 2
  %37 = getelementptr inbounds i8, ptr @_ZL19_hb_ucd_dm2_u32_map, i64 %36
  %38 = load i32, ptr %37, align 4
  %39 = and i32 %38, -16384
  %40 = icmp ugt i32 %39, %31
  br i1 %40, label %41, label %43

41:                                               ; preds = %32
  %42 = add nsw i32 %34, -1
  br label %46

43:                                               ; preds = %32
  %.not1.i.i = icmp ult i32 %39, %31
  br i1 %.not1.i.i, label %44, label %_ZL10hb_bsearchIKjjEPT_RKT0_S2_mmPFiPKvS7_E.exit

44:                                               ; preds = %43
  %45 = add nuw nsw i32 %34, 1
  br label %46

46:                                               ; preds = %44, %41
  %.121.i.i = phi i32 [ %42, %41 ], [ %.0202.i.i, %44 ]
  %.1.i.i = phi i32 [ %.0193.i.i, %41 ], [ %45, %44 ]
  %.not.not.i.i = icmp sgt i32 %.1.i.i, %.121.i.i
  br i1 %.not.not.i.i, label %_ZL10hb_bsearchIKjjEPT_RKT0_S2_mmPFiPKvS7_E.exit.thread, label %32, !llvm.loop !6

_ZL10hb_bsearchIKjjEPT_RKT0_S2_mmPFiPKvS7_E.exit: ; preds = %43
  %47 = and i32 %38, 16383
  br label %70

.thread:                                          ; preds = %9, %23
  %48 = zext i32 %1 to i64
  %49 = shl i64 %48, 42
  %50 = zext i32 %2 to i64
  %51 = shl nuw nsw i64 %50, 21
  %52 = or i64 %51, %49
  br label %53

53:                                               ; preds = %67, %.thread
  %.0193.i.i23 = phi i32 [ 0, %.thread ], [ %.1.i.i27, %67 ]
  %.0202.i.i24 = phi i32 [ 387, %.thread ], [ %.121.i.i26, %67 ]
  %54 = add i32 %.0202.i.i24, %.0193.i.i23
  %55 = lshr i32 %54, 1
  %56 = zext nneg i32 %55 to i64
  %57 = shl nuw nsw i64 %56, 3
  %58 = getelementptr inbounds i8, ptr @_ZL19_hb_ucd_dm2_u64_map, i64 %57
  %59 = load i64, ptr %58, align 8
  %60 = and i64 %59, 9223372036852678656
  %61 = icmp ugt i64 %60, %52
  br i1 %61, label %62, label %64

62:                                               ; preds = %53
  %63 = add nsw i32 %55, -1
  br label %67

64:                                               ; preds = %53
  %.not1.i.i25 = icmp ult i64 %60, %52
  br i1 %.not1.i.i25, label %65, label %_ZL10hb_bsearchIKmmEPT_RKT0_S2_mmPFiPKvS7_E.exit

65:                                               ; preds = %64
  %66 = add nuw nsw i32 %55, 1
  br label %67

67:                                               ; preds = %65, %62
  %.121.i.i26 = phi i32 [ %63, %62 ], [ %.0202.i.i24, %65 ]
  %.1.i.i27 = phi i32 [ %.0193.i.i23, %62 ], [ %66, %65 ]
  %.not.not.i.i28 = icmp sgt i32 %.1.i.i27, %.121.i.i26
  br i1 %.not.not.i.i28, label %_ZL10hb_bsearchIKjjEPT_RKT0_S2_mmPFiPKvS7_E.exit.thread, label %53, !llvm.loop !8

_ZL10hb_bsearchIKmmEPT_RKT0_S2_mmPFiPKvS7_E.exit: ; preds = %64
  %68 = trunc i64 %59 to i32
  %69 = and i32 %68, 2097151
  br label %70

70:                                               ; preds = %_ZL10hb_bsearchIKmmEPT_RKT0_S2_mmPFiPKvS7_E.exit, %_ZL10hb_bsearchIKjjEPT_RKT0_S2_mmPFiPKvS7_E.exit
  %.016 = phi i32 [ %47, %_ZL10hb_bsearchIKjjEPT_RKT0_S2_mmPFiPKvS7_E.exit ], [ %69, %_ZL10hb_bsearchIKmmEPT_RKT0_S2_mmPFiPKvS7_E.exit ]
  %.not20 = icmp eq i32 %.016, 0
  br i1 %.not20, label %_ZL10hb_bsearchIKjjEPT_RKT0_S2_mmPFiPKvS7_E.exit.thread, label %_ZL10hb_bsearchIKjjEPT_RKT0_S2_mmPFiPKvS7_E.exit.thread.sink.split

_ZL10hb_bsearchIKjjEPT_RKT0_S2_mmPFiPKvS7_E.exit.thread.sink.split: ; preds = %70, %18, %11
  %.sink.i.sink = phi i32 [ %22, %18 ], [ %13, %11 ], [ %.016, %70 ]
  store i32 %.sink.i.sink, ptr %3, align 4
  br label %_ZL10hb_bsearchIKjjEPT_RKT0_S2_mmPFiPKvS7_E.exit.thread

_ZL10hb_bsearchIKjjEPT_RKT0_S2_mmPFiPKvS7_E.exit.thread: ; preds = %46, %67, %_ZL10hb_bsearchIKjjEPT_RKT0_S2_mmPFiPKvS7_E.exit.thread.sink.split, %70
  %.0 = phi i32 [ 0, %70 ], [ 1, %_ZL10hb_bsearchIKjjEPT_RKT0_S2_mmPFiPKvS7_E.exit.thread.sink.split ], [ 0, %67 ], [ 0, %46 ]
  ret i32 %.0
}